
_interrupt:
	MOVWF      R15+0
	SWAPF      STATUS+0, 0
	CLRF       STATUS+0
	MOVWF      ___saveSTATUS+0
	MOVF       PCLATH+0, 0
	MOVWF      ___savePCLATH+0
	CLRF       PCLATH+0

;Pic-Parking.c,11 :: 		void interrupt (void) {
;Pic-Parking.c,12 :: 		if (INTCON.RBIF){
	BTFSS      INTCON+0, 0
	GOTO       L_interrupt0
;Pic-Parking.c,13 :: 		if (PORTB.RB6) {
	BTFSS      PORTB+0, 6
	GOTO       L_interrupt1
;Pic-Parking.c,15 :: 		flag  = 1;
	MOVLW      1
	MOVWF      _flag+0
;Pic-Parking.c,17 :: 		}
L_interrupt1:
;Pic-Parking.c,18 :: 		if (PORTB.RB7){
	BTFSS      PORTB+0, 7
	GOTO       L_interrupt2
;Pic-Parking.c,20 :: 		flag  = 2;
	MOVLW      2
	MOVWF      _flag+0
;Pic-Parking.c,22 :: 		}
L_interrupt2:
;Pic-Parking.c,24 :: 		INTCON.RBIF  = 0; //REST FLAG
	BCF        INTCON+0, 0
;Pic-Parking.c,25 :: 		}
L_interrupt0:
;Pic-Parking.c,26 :: 		}
L_end_interrupt:
L__interrupt23:
	MOVF       ___savePCLATH+0, 0
	MOVWF      PCLATH+0
	SWAPF      ___saveSTATUS+0, 0
	MOVWF      STATUS+0
	SWAPF      R15+0, 1
	SWAPF      R15+0, 0
	RETFIE
; end of _interrupt

_main:

;Pic-Parking.c,29 :: 		void main() {
;Pic-Parking.c,30 :: 		Init_LCD();
	CALL       _Init_LCD+0
;Pic-Parking.c,31 :: 		Init_LM35();
	CALL       _Init_LM35+0
;Pic-Parking.c,32 :: 		Init_Sensor();
	CALL       _Init_Sensor+0
;Pic-Parking.c,33 :: 		Init_Control();
	CALL       _Init_Control+0
;Pic-Parking.c,35 :: 		do{
L_main3:
;Pic-Parking.c,36 :: 		if (flag == 1) {
	MOVF       _flag+0, 0
	XORLW      1
	BTFSS      STATUS+0, 2
	GOTO       L_main6
;Pic-Parking.c,37 :: 		if (Read_Places_num() > 0)
	CALL       _Read_Places_num+0
	MOVF       R0+0, 0
	SUBLW      0
	BTFSC      STATUS+0, 0
	GOTO       L_main7
;Pic-Parking.c,39 :: 		Free_Places();
	CALL       _Free_Places+0
;Pic-Parking.c,40 :: 		LCD_Cmd(_LCD_CLEAR);
	MOVLW      1
	MOVWF      FARG_Lcd_Cmd_out_char+0
	CALL       _Lcd_Cmd+0
;Pic-Parking.c,41 :: 		LCD_Out(1,3,"Welcome :) ");
	MOVLW      1
	MOVWF      FARG_Lcd_Out_row+0
	MOVLW      3
	MOVWF      FARG_Lcd_Out_column+0
	MOVLW      ?lstr1_Pic_45Parking+0
	MOVWF      FARG_Lcd_Out_text+0
	CALL       _Lcd_Out+0
;Pic-Parking.c,42 :: 		Motor1();
	CALL       _Motor1+0
;Pic-Parking.c,43 :: 		Lcd_Cmd(_LCD_CLEAR);
	MOVLW      1
	MOVWF      FARG_Lcd_Cmd_out_char+0
	CALL       _Lcd_Cmd+0
;Pic-Parking.c,44 :: 		Sub_Places();
	CALL       _Sub_Places+0
;Pic-Parking.c,45 :: 		}else{
	GOTO       L_main8
L_main7:
;Pic-Parking.c,46 :: 		Full_Places();
	CALL       _Full_Places+0
;Pic-Parking.c,47 :: 		Lcd_Cmd(_LCD_CLEAR);
	MOVLW      1
	MOVWF      FARG_Lcd_Cmd_out_char+0
	CALL       _Lcd_Cmd+0
;Pic-Parking.c,48 :: 		LCD_Out(1,1,"Sorry,Full :(");
	MOVLW      1
	MOVWF      FARG_Lcd_Out_row+0
	MOVLW      1
	MOVWF      FARG_Lcd_Out_column+0
	MOVLW      ?lstr2_Pic_45Parking+0
	MOVWF      FARG_Lcd_Out_text+0
	CALL       _Lcd_Out+0
;Pic-Parking.c,49 :: 		Delay_ms(2000);
	MOVLW      41
	MOVWF      R11+0
	MOVLW      150
	MOVWF      R12+0
	MOVLW      127
	MOVWF      R13+0
L_main9:
	DECFSZ     R13+0, 1
	GOTO       L_main9
	DECFSZ     R12+0, 1
	GOTO       L_main9
	DECFSZ     R11+0, 1
	GOTO       L_main9
;Pic-Parking.c,50 :: 		Lcd_Cmd(_LCD_CLEAR);
	MOVLW      1
	MOVWF      FARG_Lcd_Cmd_out_char+0
	CALL       _Lcd_Cmd+0
;Pic-Parking.c,51 :: 		}
L_main8:
;Pic-Parking.c,52 :: 		flag = 0;
	CLRF       _flag+0
;Pic-Parking.c,53 :: 		}
L_main6:
;Pic-Parking.c,54 :: 		if (flag == 2){
	MOVF       _flag+0, 0
	XORLW      2
	BTFSS      STATUS+0, 2
	GOTO       L_main10
;Pic-Parking.c,55 :: 		unsigned short wait=0;
	CLRF       main_wait_L2+0
	CLRF       main_pay_L2+0
;Pic-Parking.c,57 :: 		LCD_Cmd(_LCD_CLEAR);
	MOVLW      1
	MOVWF      FARG_Lcd_Cmd_out_char+0
	CALL       _Lcd_Cmd+0
;Pic-Parking.c,58 :: 		LCD_Out(1,1,"Wait for payment:) ");
	MOVLW      1
	MOVWF      FARG_Lcd_Out_row+0
	MOVLW      1
	MOVWF      FARG_Lcd_Out_column+0
	MOVLW      ?lstr3_Pic_45Parking+0
	MOVWF      FARG_Lcd_Out_text+0
	CALL       _Lcd_Out+0
;Pic-Parking.c,59 :: 		do{
L_main11:
;Pic-Parking.c,60 :: 		if (PORTB.RB0) {
	BTFSS      PORTB+0, 0
	GOTO       L_main14
;Pic-Parking.c,61 :: 		pay = 1;
	MOVLW      1
	MOVWF      main_pay_L2+0
;Pic-Parking.c,62 :: 		LCD_Cmd(_LCD_CLEAR);
	MOVLW      1
	MOVWF      FARG_Lcd_Cmd_out_char+0
	CALL       _Lcd_Cmd+0
;Pic-Parking.c,63 :: 		LCD_Out(1,4,"Thank you :D ");
	MOVLW      1
	MOVWF      FARG_Lcd_Out_row+0
	MOVLW      4
	MOVWF      FARG_Lcd_Out_column+0
	MOVLW      ?lstr4_Pic_45Parking+0
	MOVWF      FARG_Lcd_Out_text+0
	CALL       _Lcd_Out+0
;Pic-Parking.c,64 :: 		Delay_ms(1000);
	MOVLW      21
	MOVWF      R11+0
	MOVLW      75
	MOVWF      R12+0
	MOVLW      190
	MOVWF      R13+0
L_main15:
	DECFSZ     R13+0, 1
	GOTO       L_main15
	DECFSZ     R12+0, 1
	GOTO       L_main15
	DECFSZ     R11+0, 1
	GOTO       L_main15
	NOP
;Pic-Parking.c,65 :: 		LCD_Cmd(_LCD_CLEAR);
	MOVLW      1
	MOVWF      FARG_Lcd_Cmd_out_char+0
	CALL       _Lcd_Cmd+0
;Pic-Parking.c,66 :: 		}
L_main14:
;Pic-Parking.c,67 :: 		wait++;
	INCF       main_wait_L2+0, 1
;Pic-Parking.c,68 :: 		Delay_ms(100);
	MOVLW      3
	MOVWF      R11+0
	MOVLW      8
	MOVWF      R12+0
	MOVLW      119
	MOVWF      R13+0
L_main16:
	DECFSZ     R13+0, 1
	GOTO       L_main16
	DECFSZ     R12+0, 1
	GOTO       L_main16
	DECFSZ     R11+0, 1
	GOTO       L_main16
;Pic-Parking.c,69 :: 		}  while(!(wait == 50 ||  pay == 1));
	MOVF       main_wait_L2+0, 0
	XORLW      50
	BTFSC      STATUS+0, 2
	GOTO       L_main18
	MOVF       main_pay_L2+0, 0
	XORLW      1
	BTFSC      STATUS+0, 2
	GOTO       L_main18
	CLRF       R0+0
	GOTO       L_main17
L_main18:
	MOVLW      1
	MOVWF      R0+0
L_main17:
	MOVF       R0+0, 0
	BTFSC      STATUS+0, 2
	GOTO       L_main11
;Pic-Parking.c,70 :: 		if (pay == 1){
	MOVF       main_pay_L2+0, 0
	XORLW      1
	BTFSS      STATUS+0, 2
	GOTO       L_main19
;Pic-Parking.c,71 :: 		LCD_Cmd(_LCD_CLEAR);
	MOVLW      1
	MOVWF      FARG_Lcd_Cmd_out_char+0
	CALL       _Lcd_Cmd+0
;Pic-Parking.c,72 :: 		LCD_Out(1,3,"Good Bye :) ");
	MOVLW      1
	MOVWF      FARG_Lcd_Out_row+0
	MOVLW      3
	MOVWF      FARG_Lcd_Out_column+0
	MOVLW      ?lstr5_Pic_45Parking+0
	MOVWF      FARG_Lcd_Out_text+0
	CALL       _Lcd_Out+0
;Pic-Parking.c,73 :: 		Motor2();
	CALL       _Motor2+0
;Pic-Parking.c,74 :: 		LCD_Cmd(_LCD_CLEAR);
	MOVLW      1
	MOVWF      FARG_Lcd_Cmd_out_char+0
	CALL       _Lcd_Cmd+0
;Pic-Parking.c,75 :: 		Add_Places();
	CALL       _Add_Places+0
;Pic-Parking.c,76 :: 		}else{
	GOTO       L_main20
L_main19:
;Pic-Parking.c,77 :: 		LCD_Cmd(_LCD_CLEAR);
	MOVLW      1
	MOVWF      FARG_Lcd_Cmd_out_char+0
	CALL       _Lcd_Cmd+0
;Pic-Parking.c,78 :: 		LCD_Out(1,1,"You must pay !");
	MOVLW      1
	MOVWF      FARG_Lcd_Out_row+0
	MOVLW      1
	MOVWF      FARG_Lcd_Out_column+0
	MOVLW      ?lstr6_Pic_45Parking+0
	MOVWF      FARG_Lcd_Out_text+0
	CALL       _Lcd_Out+0
;Pic-Parking.c,79 :: 		Delay_ms(1000);
	MOVLW      21
	MOVWF      R11+0
	MOVLW      75
	MOVWF      R12+0
	MOVLW      190
	MOVWF      R13+0
L_main21:
	DECFSZ     R13+0, 1
	GOTO       L_main21
	DECFSZ     R12+0, 1
	GOTO       L_main21
	DECFSZ     R11+0, 1
	GOTO       L_main21
	NOP
;Pic-Parking.c,80 :: 		Lcd_Cmd(_LCD_CLEAR);
	MOVLW      1
	MOVWF      FARG_Lcd_Cmd_out_char+0
	CALL       _Lcd_Cmd+0
;Pic-Parking.c,81 :: 		}
L_main20:
;Pic-Parking.c,82 :: 		flag = 0;
	CLRF       _flag+0
;Pic-Parking.c,83 :: 		}
L_main10:
;Pic-Parking.c,84 :: 		LCD_Out(1,1,"Temp:");
	MOVLW      1
	MOVWF      FARG_Lcd_Out_row+0
	MOVLW      1
	MOVWF      FARG_Lcd_Out_column+0
	MOVLW      ?lstr7_Pic_45Parking+0
	MOVWF      FARG_Lcd_Out_text+0
	CALL       _Lcd_Out+0
;Pic-Parking.c,85 :: 		LCD_Out(2,1,"Places:");
	MOVLW      2
	MOVWF      FARG_Lcd_Out_row+0
	MOVLW      1
	MOVWF      FARG_Lcd_Out_column+0
	MOVLW      ?lstr8_Pic_45Parking+0
	MOVWF      FARG_Lcd_Out_text+0
	CALL       _Lcd_Out+0
;Pic-Parking.c,86 :: 		Read_LM35(Temp);
	MOVLW      _Temp+0
	MOVWF      FARG_Read_LM35+0
	CALL       _Read_LM35+0
;Pic-Parking.c,87 :: 		Read_Places(Pt);
	MOVLW      _Pt+0
	MOVWF      FARG_Read_Places+0
	CALL       _Read_Places+0
;Pic-Parking.c,88 :: 		LCD_Out(1,8,Temp);
	MOVLW      1
	MOVWF      FARG_Lcd_Out_row+0
	MOVLW      8
	MOVWF      FARG_Lcd_Out_column+0
	MOVLW      _Temp+0
	MOVWF      FARG_Lcd_Out_text+0
	CALL       _Lcd_Out+0
;Pic-Parking.c,89 :: 		LCD_Out(2,9,Pt);
	MOVLW      2
	MOVWF      FARG_Lcd_Out_row+0
	MOVLW      9
	MOVWF      FARG_Lcd_Out_column+0
	MOVLW      _Pt+0
	MOVWF      FARG_Lcd_Out_text+0
	CALL       _Lcd_Out+0
;Pic-Parking.c,91 :: 		}while(1);
	GOTO       L_main3
;Pic-Parking.c,92 :: 		}
L_end_main:
	GOTO       $+0
; end of _main
